; Function Attrs: nounwind uwtable
define internal i32 @Abc_NtkRenodeEvalAig(ptr noundef readonly captures(none) %0, ptr noundef captures(none) %1) #0 {
  %3 = getelementptr i8, ptr %1, i64 36
  %4 = getelementptr inbounds nuw i8, ptr %1, i64 28
  %5 = load i64, ptr %4, align 4
  %6 = lshr i64 %5, 24
  %7 = and i64 %6, 255
  %8 = getelementptr i32, ptr %3, i64 %7
  %9 = getelementptr i8, ptr %1, i64 16
  %.val = load i32, ptr %9, align 4
  %10 = getelementptr inbounds nuw i8, ptr %0, i64 152
  %11 = load ptr, ptr %10, align 8
  %12 = getelementptr inbounds nuw i8, ptr %0, i64 1064
  %13 = getelementptr inbounds nuw [16 x ptr], ptr %12, i64 0, i64 %7
  %14 = load ptr, ptr %13, align 8
  %.not.i.i.i = icmp eq ptr %14, null
  br i1 %.not.i.i.i, label %If_CutTruthWR.exit.i.i, label %15

15:                                               ; preds = %2
  %16 = ashr i32 %.val, 1
  %17 = getelementptr inbounds nuw i8, ptr %14, i64 24
  %18 = load ptr, ptr %17, align 8
  %19 = getelementptr inbounds nuw i8, ptr %14, i64 8
  %20 = load i32, ptr %19, align 8
  %21 = ashr i32 %16, %20
  %22 = sext i32 %21 to i64
  %23 = getelementptr inbounds ptr, ptr %18, i64 %22
  %24 = load ptr, ptr %23, align 8
  %25 = load i32, ptr %14, align 8
  %26 = getelementptr inbounds nuw i8, ptr %14, i64 12
  %27 = load i32, ptr %26, align 4
  %28 = and i32 %27, %16
  %29 = mul nsw i32 %28, %25
  %30 = sext i32 %29 to i64
  %31 = getelementptr inbounds i64, ptr %24, i64 %30
  br label %If_CutTruthWR.exit.i.i

If_CutTruthWR.exit.i.i:                           ; preds = %15, %2
  %32 = phi ptr [ %31, %15 ], [ null, %2 ]
  %33 = getelementptr inbounds nuw i8, ptr %0, i64 652
  %34 = getelementptr inbounds nuw [16 x i32], ptr %33, i64 0, i64 %7
  %35 = load i32, ptr %34, align 4
  %36 = and i32 %.val, 1
  %.not.i7.i.i = icmp eq i32 %36, 0
  %37 = icmp sgt i32 %35, 0
  br i1 %.not.i7.i.i, label %.preheader.i.i.i, label %.preheader14.i.i.i

.preheader14.i.i.i:                               ; preds = %If_CutTruthWR.exit.i.i
  br i1 %37, label %.lr.ph.preheader.i.i.i, label %If_CutTruth.exit

.lr.ph.preheader.i.i.i:                           ; preds = %.preheader14.i.i.i
  %wide.trip.count.i.i.i = zext nneg i32 %35 to i64
  br label %.lr.ph.i.i.i

.preheader.i.i.i:                                 ; preds = %If_CutTruthWR.exit.i.i
  br i1 %37, label %.lr.ph18.preheader.i.i.i, label %If_CutTruth.exit

.lr.ph18.preheader.i.i.i:                         ; preds = %.preheader.i.i.i
  %wide.trip.count24.i.i.i = zext nneg i32 %35 to i64
  br label %.lr.ph18.i.i.i

.lr.ph.i.i.i:                                     ; preds = %.lr.ph.i.i.i, %.lr.ph.preheader.i.i.i
  %indvars.iv.i.i.i = phi i64 [ 0, %.lr.ph.preheader.i.i.i ], [ %indvars.iv.next.i.i.i, %.lr.ph.i.i.i ]
  %38 = getelementptr inbounds nuw i64, ptr %32, i64 %indvars.iv.i.i.i
  %39 = load i64, ptr %38, align 8
  %40 = xor i64 %39, -1
  %41 = getelementptr inbounds nuw i64, ptr %11, i64 %indvars.iv.i.i.i
  store i64 %40, ptr %41, align 8
  %indvars.iv.next.i.i.i = add nuw nsw i64 %indvars.iv.i.i.i, 1
  %exitcond.not.i.i.i = icmp eq i64 %indvars.iv.next.i.i.i, %wide.trip.count.i.i.i
  br i1 %exitcond.not.i.i.i, label %If_CutTruth.exit, label %.lr.ph.i.i.i, !llvm.loop !6

.lr.ph18.i.i.i:                                   ; preds = %.lr.ph18.i.i.i, %.lr.ph18.preheader.i.i.i
  %indvars.iv21.i.i.i = phi i64 [ 0, %.lr.ph18.preheader.i.i.i ], [ %indvars.iv.next22.i.i.i, %.lr.ph18.i.i.i ]
  %42 = getelementptr inbounds nuw i64, ptr %32, i64 %indvars.iv21.i.i.i
  %43 = load i64, ptr %42, align 8
  %44 = getelementptr inbounds nuw i64, ptr %11, i64 %indvars.iv21.i.i.i
  store i64 %43, ptr %44, align 8
  %indvars.iv.next22.i.i.i = add nuw nsw i64 %indvars.iv21.i.i.i, 1
  %exitcond25.not.i.i.i = icmp eq i64 %indvars.iv.next22.i.i.i, %wide.trip.count24.i.i.i
  br i1 %exitcond25.not.i.i.i, label %If_CutTruth.exit, label %.lr.ph18.i.i.i, !llvm.loop !7

If_CutTruth.exit:                                 ; preds = %.lr.ph.i.i.i, %.lr.ph18.i.i.i, %.preheader14.i.i.i, %.preheader.i.i.i
  %45 = load ptr, ptr %10, align 8
  %.val25 = load i64, ptr %4, align 4
  %46 = trunc i64 %.val25 to i32
  %47 = lshr i32 %46, 24
  %48 = load ptr, ptr @s_vMemory, align 8
  %49 = tail call ptr @Kit_TruthToGraph(ptr noundef %45, i32 noundef %47, ptr noundef %48) #7
  %50 = icmp eq ptr %49, null
  br i1 %50, label %.preheader, label %54

.preheader:                                       ; preds = %If_CutTruth.exit
  %.val26 = load i64, ptr %4, align 4
  %51 = and i64 %.val26, 4278190080
  %.not38 = icmp eq i64 %51, 0
  br i1 %.not38, label %.loopexit, label %.lr.ph37.preheader

.lr.ph37.preheader:                               ; preds = %.preheader
  %52 = lshr i64 %.val26, 24
  %53 = and i64 %52, 255
  %umax = tail call i64 @llvm.umax.i64(i64 %53, i64 1)
  tail call void @llvm.memset.p0.i64(ptr noundef nonnull align 1 dereferenceable(1) %8, i8 100, i64 %umax, i1 false)
  br label %.loopexit

54:                                               ; preds = %If_CutTruth.exit
  %55 = getelementptr i8, ptr %49, i64 4
  %.val28 = load i32, ptr %55, align 4
  %56 = getelementptr i8, ptr %49, i64 8
  %.val29 = load i32, ptr %56, align 8
  %57 = sub nsw i32 %.val29, %.val28
  %.val2734 = load i64, ptr %4, align 4
  %58 = and i64 %.val2734, 4278190080
  %.not = icmp eq i64 %58, 0
  br i1 %.not, label %._crit_edge, label %.lr.ph

.lr.ph:                                           ; preds = %54
  %59 = getelementptr i8, ptr %49, i64 16
  br label %60

60:                                               ; preds = %.lr.ph, %60
  %indvars.iv = phi i64 [ 0, %.lr.ph ], [ %indvars.iv.next, %60 ]
  %.val30 = load i32, ptr %56, align 8
  %.val31 = load ptr, ptr %59, align 8
  %61 = sext i32 %.val30 to i64
  %62 = getelementptr inbounds %struct.Kit_Node_t_, ptr %.val31, i64 %61
  %63 = getelementptr inbounds i8, ptr %62, i64 -24
  %64 = getelementptr inbounds nuw %struct.Kit_Node_t_, ptr %.val31, i64 %indvars.iv
  %65 = tail call i32 @Kit_GraphLeafDepth_rec(ptr noundef nonnull %49, ptr noundef nonnull %63, ptr noundef %64) #7
  %66 = trunc i32 %65 to i8
  %67 = getelementptr inbounds nuw i8, ptr %8, i64 %indvars.iv
  store i8 %66, ptr %67, align 1
  %indvars.iv.next = add nuw nsw i64 %indvars.iv, 1
  %.val27 = load i64, ptr %4, align 4
  %68 = lshr i64 %.val27, 24
  %69 = and i64 %68, 255
  %70 = icmp samesign ult i64 %indvars.iv.next, %69
  br i1 %70, label %60, label %._crit_edge, !llvm.loop !10

._crit_edge:                                      ; preds = %60, %54
  tail call void @Kit_GraphFree(ptr noundef nonnull %49) #7
  br label %.loopexit

.loopexit:                                        ; preds = %.lr.ph37.preheader, %.preheader, %._crit_edge
  %.0 = phi i32 [ %57, %._crit_edge ], [ 4095, %.preheader ], [ 4095, %.lr.ph37.preheader ]
  ret i32 %.0
}